target datalayout = "e-m:e-p270:32:32-p271:32:32-p272:64:64-i64:64-i128:128-f80:128-n8:16:32:64-S128"
target triple = "x86_64-pc-linux-gnu"

@.str = private unnamed_addr constant [5 x i8] c"name\00", align 1
@.str.2 = private unnamed_addr constant [8 x i8] c"version\00", align 1
@.str.3 = private unnamed_addr constant [10 x i8] c"buildinfo\00", align 1
@.str.4 = private unnamed_addr constant [7 x i8] c"status\00", align 1
@.str.6 = private unnamed_addr constant [22 x i8] c"OpenSSL Base Provider\00", align 1
@.str.7 = private unnamed_addr constant [6 x i8] c"3.5.0\00", align 1
@.str.8 = private unnamed_addr constant [10 x i8] c"3.5.0-dev\00", align 1

; Function Attrs: nounwind uwtable
define internal i32 @base_get_params(ptr noundef %0, ptr noundef %1) #0 {
  %3 = alloca i32, align 4
  %4 = alloca ptr, align 8
  %5 = alloca ptr, align 8
  %6 = alloca ptr, align 8
  %7 = alloca i32, align 4
  store ptr %0, ptr %4, align 8, !tbaa !12
  store ptr %1, ptr %5, align 8, !tbaa !21
  call void @llvm.lifetime.start.p0(i64 8, ptr %6) #4
  %8 = load ptr, ptr %5, align 8, !tbaa !21
  %9 = call ptr @OSSL_PARAM_locate(ptr noundef %8, ptr noundef @.str)
  store ptr %9, ptr %6, align 8, !tbaa !21
  %10 = load ptr, ptr %6, align 8, !tbaa !21
  %11 = icmp ne ptr %10, null
  br i1 %11, label %12, label %17

12:                                               ; preds = %2
  %13 = load ptr, ptr %6, align 8, !tbaa !21
  %14 = call i32 @OSSL_PARAM_set_utf8_ptr(ptr noundef %13, ptr noundef @.str.6)
  %15 = icmp ne i32 %14, 0
  br i1 %15, label %17, label %16

16:                                               ; preds = %12
  store i32 0, ptr %3, align 4
  store i32 1, ptr %7, align 4
  br label %49

17:                                               ; preds = %12, %2
  %18 = load ptr, ptr %5, align 8, !tbaa !21
  %19 = call ptr @OSSL_PARAM_locate(ptr noundef %18, ptr noundef @.str.2)
  store ptr %19, ptr %6, align 8, !tbaa !21
  %20 = load ptr, ptr %6, align 8, !tbaa !21
  %21 = icmp ne ptr %20, null
  br i1 %21, label %22, label %27

22:                                               ; preds = %17
  %23 = load ptr, ptr %6, align 8, !tbaa !21
  %24 = call i32 @OSSL_PARAM_set_utf8_ptr(ptr noundef %23, ptr noundef @.str.7)
  %25 = icmp ne i32 %24, 0
  br i1 %25, label %27, label %26

26:                                               ; preds = %22
  store i32 0, ptr %3, align 4
  store i32 1, ptr %7, align 4
  br label %49

27:                                               ; preds = %22, %17
  %28 = load ptr, ptr %5, align 8, !tbaa !21
  %29 = call ptr @OSSL_PARAM_locate(ptr noundef %28, ptr noundef @.str.3)
  store ptr %29, ptr %6, align 8, !tbaa !21
  %30 = load ptr, ptr %6, align 8, !tbaa !21
  %31 = icmp ne ptr %30, null
  br i1 %31, label %32, label %37

32:                                               ; preds = %27
  %33 = load ptr, ptr %6, align 8, !tbaa !21
  %34 = call i32 @OSSL_PARAM_set_utf8_ptr(ptr noundef %33, ptr noundef @.str.8)
  %35 = icmp ne i32 %34, 0
  br i1 %35, label %37, label %36

36:                                               ; preds = %32
  store i32 0, ptr %3, align 4
  store i32 1, ptr %7, align 4
  br label %49

37:                                               ; preds = %32, %27
  %38 = load ptr, ptr %5, align 8, !tbaa !21
  %39 = call ptr @OSSL_PARAM_locate(ptr noundef %38, ptr noundef @.str.4)
  store ptr %39, ptr %6, align 8, !tbaa !21
  %40 = load ptr, ptr %6, align 8, !tbaa !21
  %41 = icmp ne ptr %40, null
  br i1 %41, label %42, label %48

42:                                               ; preds = %37
  %43 = load ptr, ptr %6, align 8, !tbaa !21
  %44 = call i32 @ossl_prov_is_running()
  %45 = call i32 @OSSL_PARAM_set_int(ptr noundef %43, i32 noundef %44)
  %46 = icmp ne i32 %45, 0
  br i1 %46, label %48, label %47

47:                                               ; preds = %42
  store i32 0, ptr %3, align 4
  store i32 1, ptr %7, align 4
  br label %49

48:                                               ; preds = %42, %37
  store i32 1, ptr %3, align 4
  store i32 1, ptr %7, align 4
  br label %49

49:                                               ; preds = %48, %47, %36, %26, %16
  call void @llvm.lifetime.end.p0(i64 8, ptr %6) #4
  %50 = load i32, ptr %3, align 4
  ret i32 %50
}