; Function Attrs: nounwind uwtable
define internal range(i32 0, 2) i32 @base_get_params(ptr readnone captures(none) %0, ptr noundef %1) #0 {
  %3 = tail call ptr @OSSL_PARAM_locate(ptr noundef %1, ptr noundef nonnull @.str) #4
  %.not = icmp eq ptr %3, null
  br i1 %.not, label %6, label %4

4:                                                ; preds = %2
  %5 = tail call i32 @OSSL_PARAM_set_utf8_ptr(ptr noundef nonnull %3, ptr noundef nonnull @.str.6) #4
  %.not16 = icmp eq i32 %5, 0
  br i1 %.not16, label %20, label %6

6:                                                ; preds = %4, %2
  %7 = tail call ptr @OSSL_PARAM_locate(ptr noundef %1, ptr noundef nonnull @.str.2) #4
  %.not17 = icmp eq ptr %7, null
  br i1 %.not17, label %10, label %8

8:                                                ; preds = %6
  %9 = tail call i32 @OSSL_PARAM_set_utf8_ptr(ptr noundef nonnull %7, ptr noundef nonnull @.str.7) #4
  %.not18 = icmp eq i32 %9, 0
  br i1 %.not18, label %20, label %10

10:                                               ; preds = %8, %6
  %11 = tail call ptr @OSSL_PARAM_locate(ptr noundef %1, ptr noundef nonnull @.str.3) #4
  %.not19 = icmp eq ptr %11, null
  br i1 %.not19, label %14, label %12

12:                                               ; preds = %10
  %13 = tail call i32 @OSSL_PARAM_set_utf8_ptr(ptr noundef nonnull %11, ptr noundef nonnull @.str.8) #4
  %.not20 = icmp eq i32 %13, 0
  br i1 %.not20, label %20, label %14

14:                                               ; preds = %12, %10
  %15 = tail call ptr @OSSL_PARAM_locate(ptr noundef %1, ptr noundef nonnull @.str.4) #4
  %.not21 = icmp eq ptr %15, null
  br i1 %.not21, label %19, label %16

16:                                               ; preds = %14
  %17 = tail call i32 @ossl_prov_is_running() #4
  %18 = tail call i32 @OSSL_PARAM_set_int(ptr noundef nonnull %15, i32 noundef %17) #4
  %.not22 = icmp eq i32 %18, 0
  br i1 %.not22, label %20, label %19

19:                                               ; preds = %16, %14
  br label %20

20:                                               ; preds = %16, %12, %8, %4, %19
  %.0 = phi i32 [ 1, %19 ], [ 0, %4 ], [ 0, %8 ], [ 0, %12 ], [ 0, %16 ]
  ret i32 %.0
}